ccopy_reg
_reconstructor
p1
(cliving
Living
p2
c__builtin__
object
p3
NtRp4
(dp5
S'_Room__name'
p6
S'Bade'
p7
sS'room_name'
p8
g7
sS'no_of_occupants'
p9
I0
sS'members'
p10
S'EMPTY'
p11
sb.ccopy_reg
_reconstructor
p1
(cliving
Living
p2
c__builtin__
object
p3
NtRp4
(dp5
S'_Room__name'
p6
S'Cadem'
p7
sS'room_name'
p8
g7
sS'no_of_occupants'
p9
I0
sS'members'
p10
S'EMPTY'
p11
sb.ccopy_reg
_reconstructor
p1
(cliving
Living
p2
c__builtin__
object
p3
NtRp4
(dp5
S'_Room__name'
p6
S'Cademy'
p7
sS'room_name'
p8
g7
sS'no_of_occupants'
p9
I0
sS'members'
p10
S'EMPTY'
p11
sb.ccopy_reg
_reconstructor
p1
(cliving
Living
p2
c__builtin__
object
p3
NtRp4
(dp5
S'_Room__name'
p6
S'Account'
p7
sS'room_name'
p8
g7
sS'no_of_occupants'
p9
I0
sS'members'
p10
S'EMPTY'
p11
sb.ccopy_reg
_reconstructor
p1
(cliving
Living
p2
c__builtin__
object
p3
NtRp4
(dp5
S'_Room__name'
p6
S'9'
sS'room_name'
p7
S'9'
sS'no_of_occupants'
p8
I0
sS'members'
p9
S'EMPTY'
p10
sb.ccopy_reg
_reconstructor
p1
(cliving
Living
p2
c__builtin__
object
p3
NtRp4
(dp5
S'_Room__name'
p6
S'Maho'
p7
sS'room_name'
p8
g7
sS'no_of_occupants'
p9
I0
sS'members'
p10
S'EMPTY'
p11
sb.ccopy_reg
_reconstructor
p1
(cliving
Living
p2
c__builtin__
object
p3
NtRp4
(dp5
S'_Room__name'
p6
S'ade'
p7
sS'room_name'
p8
g7
sS'no_of_occupants'
p9
I0
sS'members'
p10
S'EMPTY'
p11
sb.