ccopy_reg
_reconstructor
p1
(coffice
Office
p2
c__builtin__
object
p3
NtRp4
(dp5
S'_Room__name'
p6
S'Bola'
p7
sS'room_name'
p8
g7
sS'no_of_occupants'
p9
I0
sS'members'
p10
S'EMPTY'
p11
sb.ccopy_reg
_reconstructor
p1
(coffice
Office
p2
c__builtin__
object
p3
NtRp4
(dp5
S'_Room__name'
p6
S'Adio'
p7
sS'room_name'
p8
g7
sS'no_of_occupants'
p9
I0
sS'members'
p10
S'EMPTY'
p11
sb.ccopy_reg
_reconstructor
p1
(coffice
Office
p2
c__builtin__
object
p3
NtRp4
(dp5
S'_Room__name'
p6
S'Adio'
p7
sS'room_name'
p8
g7
sS'no_of_occupants'
p9
I0
sS'members'
p10
S'EMPTY'
p11
sb.